; Function Attrs: mustprogress nofree norecurse nosync nounwind willreturn memory(read, inaccessiblemem: none) uwtable
define internal ptr @textcontext_child_next(ptr noundef readonly captures(none) %0, ptr noundef readnone captures(address_is_null) %1) #9 {
  %.not = icmp eq ptr %1, null
  br i1 %.not, label %3, label %11

3:                                                ; preds = %2
  %4 = getelementptr inbounds nuw i8, ptr %0, i64 8
  %5 = load ptr, ptr %4, align 8, !tbaa !9
  %.not9 = icmp eq ptr %5, null
  br i1 %.not9, label %11, label %6

6:                                                ; preds = %3
  %7 = load ptr, ptr %5, align 8, !tbaa !20
  %.not10 = icmp eq ptr %7, null
  br i1 %.not10, label %11, label %8

8:                                                ; preds = %6
  %9 = getelementptr inbounds nuw i8, ptr %0, i64 32
  %10 = load ptr, ptr %9, align 8, !tbaa !21
  %.not11 = icmp eq ptr %10, null
  br i1 %.not11, label %11, label %12

11:                                               ; preds = %8, %6, %3, %2
  br label %12

12:                                               ; preds = %8, %11
  %.0 = phi ptr [ null, %11 ], [ %10, %8 ]
  ret ptr %.0
}